target datalayout = "e-m:e-p270:32:32-p271:32:32-p272:64:64-i64:64-i128:128-f80:128-n8:16:32:64-S128"
target triple = "x86_64-pc-linux-gnu"

%struct.FxuDouble = type { i32, i32, i32, i32, %struct.FxuListPair, ptr, ptr, ptr }
%struct.FxuListPair = type { ptr, ptr, i32 }
%struct.FxuPair = type { i32, i32, i32, ptr, ptr, ptr, i32, i32, ptr, ptr }
%struct.FxuListLit = type { ptr, ptr, i32 }
%struct.FxuCube = type { i32, ptr, ptr, %struct.FxuListLit, ptr, ptr, ptr }
%struct.FxuLit = type { i32, i32, ptr, ptr, ptr, ptr, ptr, ptr }

; Function Attrs: nounwind uwtable
define void @Fxu_MatrixGetDoubleVars(ptr noundef %0, ptr noundef %1, ptr noundef %2, ptr noundef %3, ptr noundef %4, ptr noundef %5) #0 {
  %7 = alloca ptr, align 8
  %8 = alloca ptr, align 8
  %9 = alloca ptr, align 8
  %10 = alloca ptr, align 8
  %11 = alloca ptr, align 8
  %12 = alloca ptr, align 8
  %13 = alloca ptr, align 8
  %14 = alloca ptr, align 8
  %15 = alloca ptr, align 8
  %16 = alloca i32, align 4
  %17 = alloca i32, align 4
  store ptr %0, ptr %7, align 8
  store ptr %1, ptr %8, align 8
  store ptr %2, ptr %9, align 8
  store ptr %3, ptr %10, align 8
  store ptr %4, ptr %11, align 8
  store ptr %5, ptr %12, align 8
  %18 = load ptr, ptr %8, align 8
  %19 = getelementptr inbounds %struct.FxuDouble, ptr %18, i32 0, i32 4
  %20 = getelementptr inbounds %struct.FxuListPair, ptr %19, i32 0, i32 0
  %21 = load ptr, ptr %20, align 8
  store ptr %21, ptr %13, align 8
  store i32 0, ptr %16, align 4
  store i32 0, ptr %17, align 4
  %22 = load ptr, ptr %13, align 8
  %23 = getelementptr inbounds %struct.FxuPair, ptr %22, i32 0, i32 4
  %24 = load ptr, ptr %23, align 8
  %25 = getelementptr inbounds %struct.FxuCube, ptr %24, i32 0, i32 3
  %26 = getelementptr inbounds %struct.FxuListLit, ptr %25, i32 0, i32 0
  %27 = load ptr, ptr %26, align 8
  store ptr %27, ptr %14, align 8
  %28 = load ptr, ptr %13, align 8
  %29 = getelementptr inbounds %struct.FxuPair, ptr %28, i32 0, i32 5
  %30 = load ptr, ptr %29, align 8
  %31 = getelementptr inbounds %struct.FxuCube, ptr %30, i32 0, i32 3
  %32 = getelementptr inbounds %struct.FxuListLit, ptr %31, i32 0, i32 0
  %33 = load ptr, ptr %32, align 8
  store ptr %33, ptr %15, align 8
  br label %34

34:                                               ; preds = %128, %6
  %35 = load ptr, ptr %14, align 8
  %36 = icmp ne ptr %35, null
  br i1 %36, label %37, label %89

37:                                               ; preds = %34
  %38 = load ptr, ptr %15, align 8
  %39 = icmp ne ptr %38, null
  br i1 %39, label %40, label %89

40:                                               ; preds = %37
  %41 = load ptr, ptr %14, align 8
  %42 = getelementptr inbounds %struct.FxuLit, ptr %41, i32 0, i32 0
  %43 = load i32, ptr %42, align 8
  %44 = load ptr, ptr %15, align 8
  %45 = getelementptr inbounds %struct.FxuLit, ptr %44, i32 0, i32 0
  %46 = load i32, ptr %45, align 8
  %47 = icmp eq i32 %43, %46
  br i1 %47, label %48, label %55

48:                                               ; preds = %40
  %49 = load ptr, ptr %14, align 8
  %50 = getelementptr inbounds %struct.FxuLit, ptr %49, i32 0, i32 5
  %51 = load ptr, ptr %50, align 8
  store ptr %51, ptr %14, align 8
  %52 = load ptr, ptr %15, align 8
  %53 = getelementptr inbounds %struct.FxuLit, ptr %52, i32 0, i32 5
  %54 = load ptr, ptr %53, align 8
  store ptr %54, ptr %15, align 8
  br label %88

55:                                               ; preds = %40
  %56 = load ptr, ptr %14, align 8
  %57 = getelementptr inbounds %struct.FxuLit, ptr %56, i32 0, i32 0
  %58 = load i32, ptr %57, align 8
  %59 = load ptr, ptr %15, align 8
  %60 = getelementptr inbounds %struct.FxuLit, ptr %59, i32 0, i32 0
  %61 = load i32, ptr %60, align 8
  %62 = icmp slt i32 %58, %61
  br i1 %62, label %63, label %75

63:                                               ; preds = %55
  %64 = load ptr, ptr %14, align 8
  %65 = getelementptr inbounds %struct.FxuLit, ptr %64, i32 0, i32 0
  %66 = load i32, ptr %65, align 8
  %67 = load ptr, ptr %9, align 8
  %68 = load i32, ptr %16, align 4
  %69 = add nsw i32 %68, 1
  store i32 %69, ptr %16, align 4
  %70 = sext i32 %68 to i64
  %71 = getelementptr inbounds i32, ptr %67, i64 %70
  store i32 %66, ptr %71, align 4
  %72 = load ptr, ptr %14, align 8
  %73 = getelementptr inbounds %struct.FxuLit, ptr %72, i32 0, i32 5
  %74 = load ptr, ptr %73, align 8
  store ptr %74, ptr %14, align 8
  br label %87

75:                                               ; preds = %55
  %76 = load ptr, ptr %15, align 8
  %77 = getelementptr inbounds %struct.FxuLit, ptr %76, i32 0, i32 0
  %78 = load i32, ptr %77, align 8
  %79 = load ptr, ptr %10, align 8
  %80 = load i32, ptr %17, align 4
  %81 = add nsw i32 %80, 1
  store i32 %81, ptr %17, align 4
  %82 = sext i32 %80 to i64
  %83 = getelementptr inbounds i32, ptr %79, i64 %82
  store i32 %78, ptr %83, align 4
  %84 = load ptr, ptr %15, align 8
  %85 = getelementptr inbounds %struct.FxuLit, ptr %84, i32 0, i32 5
  %86 = load ptr, ptr %85, align 8
  store ptr %86, ptr %15, align 8
  br label %87

87:                                               ; preds = %75, %63
  br label %88

88:                                               ; preds = %87, %48
  br label %128

89:                                               ; preds = %37, %34
  %90 = load ptr, ptr %14, align 8
  %91 = icmp ne ptr %90, null
  br i1 %91, label %92, label %107

92:                                               ; preds = %89
  %93 = load ptr, ptr %15, align 8
  %94 = icmp ne ptr %93, null
  br i1 %94, label %107, label %95

95:                                               ; preds = %92
  %96 = load ptr, ptr %14, align 8
  %97 = getelementptr inbounds %struct.FxuLit, ptr %96, i32 0, i32 0
  %98 = load i32, ptr %97, align 8
  %99 = load ptr, ptr %9, align 8
  %100 = load i32, ptr %16, align 4
  %101 = add nsw i32 %100, 1
  store i32 %101, ptr %16, align 4
  %102 = sext i32 %100 to i64
  %103 = getelementptr inbounds i32, ptr %99, i64 %102
  store i32 %98, ptr %103, align 4
  %104 = load ptr, ptr %14, align 8
  %105 = getelementptr inbounds %struct.FxuLit, ptr %104, i32 0, i32 5
  %106 = load ptr, ptr %105, align 8
  store ptr %106, ptr %14, align 8
  br label %127

107:                                              ; preds = %92, %89
  %108 = load ptr, ptr %14, align 8
  %109 = icmp ne ptr %108, null
  br i1 %109, label %125, label %110

110:                                              ; preds = %107
  %111 = load ptr, ptr %15, align 8
  %112 = icmp ne ptr %111, null
  br i1 %112, label %113, label %125

113:                                              ; preds = %110
  %114 = load ptr, ptr %15, align 8
  %115 = getelementptr inbounds %struct.FxuLit, ptr %114, i32 0, i32 0
  %116 = load i32, ptr %115, align 8
  %117 = load ptr, ptr %10, align 8
  %118 = load i32, ptr %17, align 4
  %119 = add nsw i32 %118, 1
  store i32 %119, ptr %17, align 4
  %120 = sext i32 %118 to i64
  %121 = getelementptr inbounds i32, ptr %117, i64 %120
  store i32 %116, ptr %121, align 4
  %122 = load ptr, ptr %15, align 8
  %123 = getelementptr inbounds %struct.FxuLit, ptr %122, i32 0, i32 5
  %124 = load ptr, ptr %123, align 8
  store ptr %124, ptr %15, align 8
  br label %126

125:                                              ; preds = %110, %107
  br label %129

126:                                              ; preds = %113
  br label %127

127:                                              ; preds = %126, %95
  br label %128

128:                                              ; preds = %127, %88
  br label %34

129:                                              ; preds = %125
  %130 = load i32, ptr %16, align 4
  %131 = load ptr, ptr %11, align 8
  store i32 %130, ptr %131, align 4
  %132 = load i32, ptr %17, align 4
  %133 = load ptr, ptr %12, align 8
  store i32 %132, ptr %133, align 4
  ret void
}