; Function Attrs: nofree norecurse nosync nounwind memory(read, argmem: readwrite, inaccessiblemem: none) uwtable
define void @Fxu_MatrixGetDoubleVars(ptr noundef readnone captures(none) %0, ptr noundef readonly captures(none) %1, ptr noundef writeonly captures(none) %2, ptr noundef writeonly captures(none) %3, ptr noundef writeonly captures(none) %4, ptr noundef writeonly captures(none) %5) local_unnamed_addr #3 {
  %7 = getelementptr inbounds nuw i8, ptr %1, i64 16
  %8 = load ptr, ptr %7, align 8
  %9 = getelementptr inbounds nuw i8, ptr %8, i64 24
  %10 = load ptr, ptr %9, align 8
  %11 = getelementptr inbounds nuw i8, ptr %10, i64 24
  %12 = getelementptr inbounds nuw i8, ptr %8, i64 32
  %13 = load ptr, ptr %12, align 8
  %14 = getelementptr inbounds nuw i8, ptr %13, i64 24
  %15 = load ptr, ptr %14, align 8
  br label %.outer.outer

.outer.outer:                                     ; preds = %.outer.outer.backedge, %6
  %.043.ph.ph.in = phi ptr [ %11, %6 ], [ %.043.ph.ph.be.in, %.outer.outer.backedge ]
  %.041.ph.ph = phi ptr [ %15, %6 ], [ %.041.ph.ph.be, %.outer.outer.backedge ]
  %.039.ph.ph = phi i32 [ 0, %6 ], [ %.039.ph.ph.be, %.outer.outer.backedge ]
  %.0.ph.ph = phi i32 [ 0, %6 ], [ %.0, %.outer.outer.backedge ]
  %.043.ph.ph = load ptr, ptr %.043.ph.ph.in, align 8
  br label %.outer

.outer:                                           ; preds = %.outer.backedge, %.outer.outer
  %.043.ph = phi ptr [ %.043.ph.ph, %.outer.outer ], [ %.043.ph.be, %.outer.backedge ]
  %.041.ph = phi ptr [ %.041.ph.ph, %.outer.outer ], [ %.041.ph.be, %.outer.backedge ]
  %.0.ph = phi i32 [ %.0.ph.ph, %.outer.outer ], [ %.0.ph.be, %.outer.backedge ]
  %16 = icmp ne ptr %.043.ph, null
  br label %17

17:                                               ; preds = %.outer, %31
  %.041 = phi ptr [ %36, %31 ], [ %.041.ph, %.outer ]
  %.0 = phi i32 [ %32, %31 ], [ %.0.ph, %.outer ]
  %18 = icmp ne ptr %.041, null
  %or.cond = select i1 %16, i1 %18, i1 false
  br i1 %or.cond, label %19, label %37

19:                                               ; preds = %17
  %20 = load i32, ptr %.043.ph, align 8
  %21 = load i32, ptr %.041, align 8
  %22 = icmp eq i32 %20, %21
  br i1 %22, label %23, label %26

23:                                               ; preds = %19
  %24 = getelementptr inbounds nuw i8, ptr %.043.ph, i64 32
  %25 = load ptr, ptr %24, align 8
  br label %.outer.backedge

.outer.backedge:                                  ; preds = %23, %44
  %.043.ph.be = phi ptr [ null, %44 ], [ %25, %23 ]
  %.0.ph.be = phi i32 [ %46, %44 ], [ %.0, %23 ]
  %.041.ph.be.in = getelementptr inbounds nuw i8, ptr %.041, i64 32
  %.041.ph.be = load ptr, ptr %.041.ph.be.in, align 8
  br label %.outer

26:                                               ; preds = %19
  %27 = icmp slt i32 %20, %21
  br i1 %27, label %28, label %31

28:                                               ; preds = %26
  %29 = zext nneg i32 %.039.ph.ph to i64
  %30 = getelementptr inbounds nuw i32, ptr %2, i64 %29
  store i32 %20, ptr %30, align 4
  br label %.outer.outer.backedge

31:                                               ; preds = %26
  %32 = add nsw i32 %.0, 1
  %33 = sext i32 %.0 to i64
  %34 = getelementptr inbounds i32, ptr %3, i64 %33
  store i32 %21, ptr %34, align 4
  %35 = getelementptr inbounds nuw i8, ptr %.041, i64 32
  %36 = load ptr, ptr %35, align 8
  br label %17

37:                                               ; preds = %17
  %38 = icmp eq ptr %.043.ph, null
  %or.cond3 = select i1 %38, i1 true, i1 %18
  br i1 %or.cond3, label %43, label %39

39:                                               ; preds = %37
  %40 = load i32, ptr %.043.ph, align 8
  %41 = zext nneg i32 %.039.ph.ph to i64
  %42 = getelementptr inbounds nuw i32, ptr %2, i64 %41
  store i32 %40, ptr %42, align 4
  br label %.outer.outer.backedge

.outer.outer.backedge:                            ; preds = %39, %28
  %.041.ph.ph.be = phi ptr [ %.041, %28 ], [ null, %39 ]
  %.039.ph.ph.be = add nuw nsw i32 %.039.ph.ph, 1
  %.043.ph.ph.be.in = getelementptr inbounds nuw i8, ptr %.043.ph, i64 32
  br label %.outer.outer

43:                                               ; preds = %37
  %or.cond5 = select i1 %38, i1 %18, i1 false
  br i1 %or.cond5, label %44, label %49

44:                                               ; preds = %43
  %45 = load i32, ptr %.041, align 8
  %46 = add nsw i32 %.0, 1
  %47 = sext i32 %.0 to i64
  %48 = getelementptr inbounds i32, ptr %3, i64 %47
  store i32 %45, ptr %48, align 4
  br label %.outer.backedge

49:                                               ; preds = %43
  store i32 %.039.ph.ph, ptr %4, align 4
  store i32 %.0, ptr %5, align 4
  ret void
}